; Function Attrs: nounwind uwtable
define noalias noundef nonnull ptr @l_Lean_CodeAction_mkCommandCodeAction(ptr noundef %0, ptr noundef %1, ptr noundef %2) local_unnamed_addr #0 {
  %4 = getelementptr inbounds nuw i8, ptr %1, i64 8
  %5 = load ptr, ptr %4, align 8, !tbaa !4
  %6 = ptrtoint ptr %5 to i64
  %7 = and i64 %6, 1
  %.not = icmp eq i64 %7, 0
  br i1 %.not, label %8, label %lean_inc.exit13

8:                                                ; preds = %3
  %.val.i = load i32, ptr %5, align 4, !tbaa !8
  %9 = icmp sgt i32 %.val.i, 0
  br i1 %9, label %10, label %12, !prof !11

10:                                               ; preds = %8
  %11 = add nuw i32 %.val.i, 1
  store i32 %11, ptr %5, align 4, !tbaa !8
  br label %lean_inc.exit13

12:                                               ; preds = %8
  %.not.i16 = icmp eq i32 %.val.i, 0
  br i1 %.not.i16, label %lean_inc.exit13, label %13

13:                                               ; preds = %12
  tail call void @lean_inc_ref_cold(ptr noundef nonnull %5) #5
  br label %lean_inc.exit13

lean_inc.exit13:                                  ; preds = %13, %12, %10, %3
  %14 = getelementptr inbounds nuw i8, ptr %1, i64 16
  %15 = load ptr, ptr %14, align 8, !tbaa !4
  %16 = ptrtoint ptr %15 to i64
  %17 = and i64 %16, 1
  %.not20 = icmp eq i64 %17, 0
  br i1 %.not20, label %18, label %lean_inc.exit

18:                                               ; preds = %lean_inc.exit13
  %.val.i17 = load i32, ptr %15, align 4, !tbaa !8
  %19 = icmp sgt i32 %.val.i17, 0
  br i1 %19, label %20, label %22, !prof !11

20:                                               ; preds = %18
  %21 = add nuw i32 %.val.i17, 1
  store i32 %21, ptr %15, align 4, !tbaa !8
  br label %lean_inc.exit

22:                                               ; preds = %18
  %.not.i18 = icmp eq i32 %.val.i17, 0
  br i1 %.not.i18, label %lean_inc.exit, label %23

23:                                               ; preds = %22
  tail call void @lean_inc_ref_cold(ptr noundef nonnull %15) #5
  br label %lean_inc.exit

lean_inc.exit:                                    ; preds = %23, %22, %20, %lean_inc.exit13
  %24 = ptrtoint ptr %1 to i64
  %25 = and i64 %24, 1
  %.not21 = icmp eq i64 %25, 0
  br i1 %.not21, label %26, label %lean_dec.exit12

26:                                               ; preds = %lean_inc.exit
  %27 = load i32, ptr %1, align 4, !tbaa !8
  %28 = icmp sgt i32 %27, 1
  br i1 %28, label %29, label %31, !prof !11

29:                                               ; preds = %26
  %30 = add nsw i32 %27, -1
  store i32 %30, ptr %1, align 4, !tbaa !8
  br label %lean_dec.exit12

31:                                               ; preds = %26
  %.not.i = icmp eq i32 %27, 0
  br i1 %.not.i, label %lean_dec.exit12, label %32

32:                                               ; preds = %31
  tail call void @lean_dec_ref_cold(ptr noundef nonnull %1) #5
  br label %lean_dec.exit12

lean_dec.exit12:                                  ; preds = %32, %31, %29, %lean_inc.exit
  %33 = load ptr, ptr @l_Lean_CodeAction_mkCommandCodeAction_unsafe__1___closed__2, align 8, !tbaa !4
  %34 = tail call ptr @l_Lean_Environment_evalConstCheck___rarg(ptr noundef %5, ptr noundef %15, ptr noundef %33, ptr noundef %0) #5
  br i1 %.not20, label %35, label %lean_dec.exit

35:                                               ; preds = %lean_dec.exit12
  %36 = load i32, ptr %15, align 4, !tbaa !8
  %37 = icmp sgt i32 %36, 1
  br i1 %37, label %38, label %40, !prof !11

38:                                               ; preds = %35
  %39 = add nsw i32 %36, -1
  store i32 %39, ptr %15, align 4, !tbaa !8
  br label %lean_dec.exit

40:                                               ; preds = %35
  %.not.i14 = icmp eq i32 %36, 0
  br i1 %.not.i14, label %lean_dec.exit, label %41

41:                                               ; preds = %40
  tail call void @lean_dec_ref_cold(ptr noundef nonnull %15) #5
  br label %lean_dec.exit

lean_dec.exit:                                    ; preds = %41, %40, %38, %lean_dec.exit12
  %42 = tail call ptr @l_IO_ofExcept___at_Lean_CodeAction_mkCommandCodeAction___spec__1(ptr noundef %34, ptr noundef %2)
  ret ptr %42
}